target datalayout = "e-m:e-p270:32:32-p271:32:32-p272:64:64-i64:64-i128:128-f80:128-n8:16:32:64-S128"
target triple = "x86_64-pc-linux-gnu"

%struct.SurfaceDataRasInfo = type { %struct.SurfaceDataBounds, ptr, i32, i32, i32, i32, ptr, ptr, ptr, ptr, ptr, ptr, i32, %union.anon.0 }
%struct.SurfaceDataBounds = type { i32, i32, i32, i32 }
%union.anon.0 = type { ptr, [56 x i8] }
%struct._CompositeInfo = type { i32, %union.anon.1, i32 }
%union.anon.1 = type { float }

; Function Attrs: nounwind uwtable
define hidden void @IntArgbToIntArgbBmXorBlit(ptr noundef %0, ptr noundef %1, i32 noundef %2, i32 noundef %3, ptr noundef %4, ptr noundef %5, ptr noundef %6, ptr noundef %7) #1 {
  %9 = alloca ptr, align 8
  %10 = alloca ptr, align 8
  %11 = alloca i32, align 4
  %12 = alloca i32, align 4
  %13 = alloca ptr, align 8
  %14 = alloca ptr, align 8
  %15 = alloca ptr, align 8
  %16 = alloca ptr, align 8
  %17 = alloca i32, align 4
  %18 = alloca i32, align 4
  %19 = alloca ptr, align 8
  %20 = alloca ptr, align 8
  %21 = alloca i32, align 4
  %22 = alloca i32, align 4
  %23 = alloca i32, align 4
  %24 = alloca i32, align 4
  store ptr %0, ptr %9, align 8
  store ptr %1, ptr %10, align 8
  store i32 %2, ptr %11, align 4
  store i32 %3, ptr %12, align 4
  store ptr %4, ptr %13, align 8
  store ptr %5, ptr %14, align 8
  store ptr %6, ptr %15, align 8
  store ptr %7, ptr %16, align 8
  %25 = load ptr, ptr %16, align 8
  %26 = getelementptr inbounds %struct._CompositeInfo, ptr %25, i32 0, i32 1
  %27 = load i32, ptr %26, align 4
  store i32 %27, ptr %17, align 4
  %28 = load ptr, ptr %16, align 8
  %29 = getelementptr inbounds %struct._CompositeInfo, ptr %28, i32 0, i32 2
  %30 = load i32, ptr %29, align 4
  store i32 %30, ptr %18, align 4
  br label %31

31:                                               ; preds = %8
  %32 = load ptr, ptr %9, align 8
  store ptr %32, ptr %19, align 8
  %33 = load ptr, ptr %10, align 8
  store ptr %33, ptr %20, align 8
  %34 = load ptr, ptr %13, align 8
  %35 = getelementptr inbounds %struct.SurfaceDataRasInfo, ptr %34, i32 0, i32 4
  %36 = load i32, ptr %35, align 8
  store i32 %36, ptr %21, align 4
  %37 = load ptr, ptr %14, align 8
  %38 = getelementptr inbounds %struct.SurfaceDataRasInfo, ptr %37, i32 0, i32 4
  %39 = load i32, ptr %38, align 8
  store i32 %39, ptr %22, align 4
  %40 = load i32, ptr %11, align 4
  %41 = mul i32 %40, 4
  %42 = load i32, ptr %21, align 4
  %43 = sub i32 %42, %41
  store i32 %43, ptr %21, align 4
  %44 = load i32, ptr %11, align 4
  %45 = mul i32 %44, 4
  %46 = load i32, ptr %22, align 4
  %47 = sub i32 %46, %45
  store i32 %47, ptr %22, align 4
  br label %48

48:                                               ; preds = %100, %31
  %49 = load i32, ptr %11, align 4
  store i32 %49, ptr %23, align 4
  br label %50

50:                                               ; preds = %83, %48
  br label %51

51:                                               ; preds = %50
  %52 = load ptr, ptr %19, align 8
  %53 = getelementptr inbounds i32, ptr %52, i64 0
  %54 = load i32, ptr %53, align 4
  store i32 %54, ptr %24, align 4
  %55 = load i32, ptr %24, align 4
  %56 = icmp sge i32 %55, 0
  br i1 %56, label %57, label %58

57:                                               ; preds = %51
  br label %74

58:                                               ; preds = %51
  %59 = load i32, ptr %24, align 4
  %60 = load i32, ptr %24, align 4
  %61 = ashr i32 %60, 31
  %62 = shl i32 %61, 24
  %63 = or i32 %59, %62
  store i32 %63, ptr %24, align 4
  %64 = load i32, ptr %24, align 4
  %65 = load i32, ptr %17, align 4
  %66 = xor i32 %64, %65
  %67 = load i32, ptr %18, align 4
  %68 = xor i32 %67, -1
  %69 = and i32 %66, %68
  %70 = load ptr, ptr %20, align 8
  %71 = getelementptr inbounds i32, ptr %70, i64 0
  %72 = load i32, ptr %71, align 4
  %73 = xor i32 %72, %69
  store i32 %73, ptr %71, align 4
  br label %74

74:                                               ; preds = %58, %57
  %75 = load ptr, ptr %19, align 8
  %76 = ptrtoint ptr %75 to i64
  %77 = add nsw i64 %76, 4
  %78 = inttoptr i64 %77 to ptr
  store ptr %78, ptr %19, align 8
  %79 = load ptr, ptr %20, align 8
  %80 = ptrtoint ptr %79 to i64
  %81 = add nsw i64 %80, 4
  %82 = inttoptr i64 %81 to ptr
  store ptr %82, ptr %20, align 8
  br label %83

83:                                               ; preds = %74
  %84 = load i32, ptr %23, align 4
  %85 = add i32 %84, -1
  store i32 %85, ptr %23, align 4
  %86 = icmp ugt i32 %85, 0
  br i1 %86, label %50, label %87, !llvm.loop !29

87:                                               ; preds = %83
  %88 = load ptr, ptr %19, align 8
  %89 = ptrtoint ptr %88 to i64
  %90 = load i32, ptr %21, align 4
  %91 = sext i32 %90 to i64
  %92 = add nsw i64 %89, %91
  %93 = inttoptr i64 %92 to ptr
  store ptr %93, ptr %19, align 8
  %94 = load ptr, ptr %20, align 8
  %95 = ptrtoint ptr %94 to i64
  %96 = load i32, ptr %22, align 4
  %97 = sext i32 %96 to i64
  %98 = add nsw i64 %95, %97
  %99 = inttoptr i64 %98 to ptr
  store ptr %99, ptr %20, align 8
  br label %100

100:                                              ; preds = %87
  %101 = load i32, ptr %12, align 4
  %102 = add i32 %101, -1
  store i32 %102, ptr %12, align 4
  %103 = icmp ugt i32 %102, 0
  br i1 %103, label %48, label %104, !llvm.loop !30

104:                                              ; preds = %100
  br label %105

105:                                              ; preds = %104
  ret void
}